target datalayout = "e-m:e-p270:32:32-p271:32:32-p272:64:64-i64:64-i128:128-f80:128-n8:16:32:64-S128"
target triple = "x86_64-pc-linux-gnu"

%struct.VLC = type { i32, ptr, i32, i32 }

; Function Attrs: cold nounwind optsize uwtable
define void @ff_vlc_init_table_sparse(ptr noundef %0, i32 noundef %1, i32 noundef %2, i32 noundef %3, ptr noundef %4, i32 noundef %5, i32 noundef %6, ptr noundef %7, i32 noundef %8, i32 noundef %9, ptr noundef %10, i32 noundef %11, i32 noundef %12, i32 noundef %13) #6 {
  %15 = alloca ptr, align 8
  %16 = alloca i32, align 4
  %17 = alloca i32, align 4
  %18 = alloca i32, align 4
  %19 = alloca ptr, align 8
  %20 = alloca i32, align 4
  %21 = alloca i32, align 4
  %22 = alloca ptr, align 8
  %23 = alloca i32, align 4
  %24 = alloca i32, align 4
  %25 = alloca ptr, align 8
  %26 = alloca i32, align 4
  %27 = alloca i32, align 4
  %28 = alloca i32, align 4
  %29 = alloca %struct.VLC, align 8
  store ptr %0, ptr %15, align 8, !tbaa !45
  store i32 %1, ptr %16, align 4, !tbaa !9
  store i32 %2, ptr %17, align 4, !tbaa !9
  store i32 %3, ptr %18, align 4, !tbaa !9
  store ptr %4, ptr %19, align 8, !tbaa !11
  store i32 %5, ptr %20, align 4, !tbaa !9
  store i32 %6, ptr %21, align 4, !tbaa !9
  store ptr %7, ptr %22, align 8, !tbaa !11
  store i32 %8, ptr %23, align 4, !tbaa !9
  store i32 %9, ptr %24, align 4, !tbaa !9
  store ptr %10, ptr %25, align 8, !tbaa !11
  store i32 %11, ptr %26, align 4, !tbaa !9
  store i32 %12, ptr %27, align 4, !tbaa !9
  store i32 %13, ptr %28, align 4, !tbaa !9
  call void @llvm.lifetime.start.p0(i64 24, ptr %29) #8
  %30 = getelementptr inbounds nuw %struct.VLC, ptr %29, i32 0, i32 0
  store i32 0, ptr %30, align 8, !tbaa !36
  %31 = getelementptr i8, ptr %29, i64 4
  call void @llvm.memset.p0.i64(ptr align 4 %31, i8 0, i64 4, i1 false)
  %32 = getelementptr inbounds nuw %struct.VLC, ptr %29, i32 0, i32 1
  %33 = load ptr, ptr %15, align 8, !tbaa !45
  store ptr %33, ptr %32, align 8, !tbaa !40
  %34 = getelementptr inbounds nuw %struct.VLC, ptr %29, i32 0, i32 2
  store i32 0, ptr %34, align 8, !tbaa !39
  %35 = getelementptr inbounds nuw %struct.VLC, ptr %29, i32 0, i32 3
  %36 = load i32, ptr %16, align 4, !tbaa !9
  store i32 %36, ptr %35, align 4, !tbaa !41
  %37 = load i32, ptr %17, align 4, !tbaa !9
  %38 = load i32, ptr %18, align 4, !tbaa !9
  %39 = load ptr, ptr %19, align 8, !tbaa !11
  %40 = load i32, ptr %20, align 4, !tbaa !9
  %41 = load i32, ptr %21, align 4, !tbaa !9
  %42 = load ptr, ptr %22, align 8, !tbaa !11
  %43 = load i32, ptr %23, align 4, !tbaa !9
  %44 = load i32, ptr %24, align 4, !tbaa !9
  %45 = load ptr, ptr %25, align 8, !tbaa !11
  %46 = load i32, ptr %26, align 4, !tbaa !9
  %47 = load i32, ptr %27, align 4, !tbaa !9
  %48 = load i32, ptr %28, align 4, !tbaa !9
  %49 = or i32 %48, 1
  %50 = call i32 @ff_vlc_init_sparse(ptr noundef %29, i32 noundef %37, i32 noundef %38, ptr noundef %39, i32 noundef %40, i32 noundef %41, ptr noundef %42, i32 noundef %43, i32 noundef %44, ptr noundef %45, i32 noundef %46, i32 noundef %47, i32 noundef %49)
  call void @llvm.lifetime.end.p0(i64 24, ptr %29) #8
  ret void
}