; Function Attrs: cold nounwind optsize uwtable
define void @ff_vlc_init_table_sparse(ptr noundef %0, i32 noundef %1, i32 noundef %2, i32 noundef %3, ptr noundef readonly captures(none) %4, i32 noundef %5, i32 noundef %6, ptr noundef readonly captures(none) %7, i32 noundef %8, i32 noundef %9, ptr noundef readonly captures(address_is_null) %10, i32 noundef %11, i32 noundef %12, i32 noundef %13) local_unnamed_addr #4 {
  %15 = alloca %struct.VLC, align 8
  call void @llvm.lifetime.start.p0(i64 24, ptr nonnull %15) #8
  store i32 0, ptr %15, align 8, !tbaa !4
  %16 = getelementptr inbounds nuw i8, ptr %15, i64 4
  store i32 0, ptr %16, align 4
  %17 = getelementptr inbounds nuw i8, ptr %15, i64 8
  store ptr %0, ptr %17, align 8, !tbaa !12
  %18 = getelementptr inbounds nuw i8, ptr %15, i64 16
  store i32 0, ptr %18, align 8, !tbaa !11
  %19 = getelementptr inbounds nuw i8, ptr %15, i64 20
  store i32 %1, ptr %19, align 4, !tbaa !13
  %20 = or i32 %13, 1
  %21 = call i32 @ff_vlc_init_sparse(ptr noundef nonnull %15, i32 noundef %2, i32 noundef %3, ptr noundef %4, i32 noundef %5, i32 noundef %6, ptr noundef %7, i32 noundef %8, i32 noundef %9, ptr noundef %10, i32 noundef %11, i32 noundef %12, i32 noundef %20)
  call void @llvm.lifetime.end.p0(i64 24, ptr nonnull %15) #8
  ret void
}